; ModuleID = 'source-C-CXX/48/1121.c'
source_filename = "source-C-CXX/48/1121.c"
target datalayout = "e-m:e-p270:32:32-p271:32:32-p272:64:64-i64:64-f80:128-n8:16:32:64-S128"
target triple = "x86_64-pc-linux-gnu"

; Function Attrs: nounwind sspstrong uwtable
define dso_local i32 @main() local_unnamed_addr #0 {
  %1 = alloca [501 x i8], align 16
  %2 = getelementptr inbounds [501 x i8], [501 x i8]* %1, i64 0, i64 0
  call void @llvm.lifetime.start.p0i8(i64 501, i8* nonnull %2) #5
  %3 = call i32 (i8*, ...) bitcast (i32 (...)* @gets to i32 (i8*, ...)*)(i8* nonnull %2) #5
  %4 = call i64 @strlen(i8* noundef nonnull %2) #6
  %5 = trunc i64 %4 to i32
  %6 = icmp slt i32 %5, 2
  br i1 %6, label %56, label %7

7:                                                ; preds = %0
  %8 = shl i64 %4, 32
  %9 = ashr exact i64 %8, 32
  %10 = add i64 %4, 1
  %11 = and i64 %10, 4294967295
  br label %12

12:                                               ; preds = %52, %7
  %13 = phi i64 [ 2, %7 ], [ %53, %52 ]
  %14 = phi i64 [ 3, %7 ], [ %54, %52 ]
  br label %15

15:                                               ; preds = %12, %48
  %16 = phi i64 [ 0, %12 ], [ %49, %48 ]
  %17 = phi i64 [ %13, %12 ], [ %50, %48 ]
  %18 = add nsw i64 %16, -1
  %19 = shl i64 %17, 32
  %20 = ashr exact i64 %19, 32
  br label %24

21:                                               ; preds = %24
  %22 = add nuw nsw i64 %25, 1
  %23 = icmp eq i64 %22, %14
  br i1 %23, label %35, label %24, !llvm.loop !5

24:                                               ; preds = %15, %21
  %25 = phi i64 [ 1, %15 ], [ %22, %21 ]
  %26 = add i64 %18, %25
  %27 = shl i64 %26, 32
  %28 = ashr exact i64 %27, 32
  %29 = getelementptr inbounds [501 x i8], [501 x i8]* %1, i64 0, i64 %28
  %30 = load i8, i8* %29, align 1, !tbaa !7
  %31 = sub nsw i64 %20, %25
  %32 = getelementptr inbounds [501 x i8], [501 x i8]* %1, i64 0, i64 %31
  %33 = load i8, i8* %32, align 1, !tbaa !7
  %34 = icmp eq i8 %30, %33
  br i1 %34, label %21, label %48

35:                                               ; preds = %21, %35
  %36 = phi i64 [ %44, %35 ], [ 1, %21 ]
  %37 = add i64 %18, %36
  %38 = shl i64 %37, 32
  %39 = ashr exact i64 %38, 32
  %40 = getelementptr inbounds [501 x i8], [501 x i8]* %1, i64 0, i64 %39
  %41 = load i8, i8* %40, align 1, !tbaa !7
  %42 = sext i8 %41 to i32
  %43 = call i32 @putchar(i32 %42)
  %44 = add nuw nsw i64 %36, 1
  %45 = icmp eq i64 %44, %14
  br i1 %45, label %46, label %35, !llvm.loop !10

46:                                               ; preds = %35
  %47 = call i32 @putchar(i32 10)
  br label %48

48:                                               ; preds = %24, %46
  %49 = add nuw i64 %16, 1
  %50 = add nuw nsw i64 %49, %13
  %51 = icmp sgt i64 %50, %9
  br i1 %51, label %52, label %15, !llvm.loop !11

52:                                               ; preds = %48
  %53 = add nuw nsw i64 %13, 1
  %54 = add nuw nsw i64 %14, 1
  %55 = icmp eq i64 %53, %11
  br i1 %55, label %56, label %12, !llvm.loop !12

56:                                               ; preds = %52, %0
  call void @llvm.lifetime.end.p0i8(i64 501, i8* nonnull %2) #5
  ret i32 0
}

; Function Attrs: argmemonly mustprogress nofree nosync nounwind willreturn
declare void @llvm.lifetime.start.p0i8(i64 immarg, i8* nocapture) #1

declare i32 @gets(...) local_unnamed_addr #2

; Function Attrs: argmemonly mustprogress nofree nounwind readonly willreturn
declare i64 @strlen(i8* nocapture) local_unnamed_addr #3

; Function Attrs: argmemonly mustprogress nofree nosync nounwind willreturn
declare void @llvm.lifetime.end.p0i8(i64 immarg, i8* nocapture) #1

; Function Attrs: nofree nounwind
declare noundef i32 @putchar(i32 noundef) local_unnamed_addr #4


!llvm.module.flags = !{!0, !1, !2, !3}
!llvm.ident = !{!4}

!0 = !{i32 1, !"wchar_size", i32 4}
!1 = !{i32 7, !"PIC Level", i32 2}
!2 = !{i32 7, !"PIE Level", i32 2}
!3 = !{i32 7, !"uwtable", i32 1}
!4 = !{!"clang version 13.0.0"}
!5 = distinct !{!5, !6}
!6 = !{!"llvm.loop.mustprogress"}
!7 = !{!8, !8, i64 0}
!8 = !{!"omnipotent char", !9, i64 0}
!9 = !{!"Simple C/C++ TBAA"}
!10 = distinct !{!10, !6}
!11 = distinct !{!11, !6}
!12 = distinct !{!12, !6}
